target datalayout = "e-m:e-p270:32:32-p271:32:32-p272:64:64-i64:64-i128:128-f80:128-n8:16:32:64-S128"
target triple = "x86_64-pc-linux-gnu"

%struct.rb_data_type_struct = type { ptr, %struct.anon, ptr, ptr, i64 }
%struct.anon = type { ptr, ptr, ptr, ptr, [1 x ptr] }

@eOCSPError = internal global i64 0, align 8
@rb_eRuntimeError = external global i64, align 8
@ossl_ocsp_certid_type = internal constant %struct.rb_data_type_struct { ptr @.str.80, %struct.anon { ptr null, ptr @ossl_ocsp_certid_free, ptr null, ptr null, [1 x ptr] zeroinitializer }, ptr null, ptr null, i64 33 }, align 8
@.str.77 = private unnamed_addr constant [28 x i8] c"Cert ID wasn't initialized!\00", align 1
@.str.96 = private unnamed_addr constant [8 x i8] c"BIO_new\00", align 1
@.str.97 = private unnamed_addr constant [16 x i8] c"i2a_ASN1_OBJECT\00", align 1

; Function Attrs: nounwind sspstrong uwtable
define internal i64 @ossl_ocspcid_get_hash_algorithm(i64 noundef %0) #0 {
  %2 = alloca i64, align 8
  %3 = alloca ptr, align 8
  %4 = alloca ptr, align 8
  %5 = alloca ptr, align 8
  store i64 %0, ptr %2, align 8, !tbaa !6
  call void @llvm.lifetime.start.p0(i64 8, ptr %3) #15
  call void @llvm.lifetime.start.p0(i64 8, ptr %4) #15
  call void @llvm.lifetime.start.p0(i64 8, ptr %5) #15
  br label %6

6:                                                ; preds = %1
  %7 = load i64, ptr %2, align 8, !tbaa !6
  %8 = call ptr @rb_check_typeddata(i64 noundef %7, ptr noundef @ossl_ocsp_certid_type)
  store ptr %8, ptr %3, align 8, !tbaa !25
  %9 = load ptr, ptr %3, align 8, !tbaa !25
  %10 = icmp ne ptr %9, null
  br i1 %10, label %13, label %11

11:                                               ; preds = %6
  %12 = load i64, ptr @rb_eRuntimeError, align 8, !tbaa !6
  call void (i64, ptr, ...) @ossl_raise(i64 noundef %12, ptr noundef @.str.77) #16
  unreachable

13:                                               ; preds = %6
  br label %14

14:                                               ; preds = %13
  br label %15

15:                                               ; preds = %14
  %16 = load ptr, ptr %3, align 8, !tbaa !25
  %17 = call i32 @OCSP_id_get0_info(ptr noundef null, ptr noundef %4, ptr noundef null, ptr noundef null, ptr noundef %16)
  %18 = call ptr @BIO_s_mem()
  %19 = call ptr @BIO_new(ptr noundef %18)
  store ptr %19, ptr %5, align 8, !tbaa !58
  %20 = icmp ne ptr %19, null
  br i1 %20, label %23, label %21

21:                                               ; preds = %15
  %22 = load i64, ptr @eOCSPError, align 8, !tbaa !6
  call void (i64, ptr, ...) @ossl_raise(i64 noundef %22, ptr noundef @.str.96) #16
  unreachable

23:                                               ; preds = %15
  %24 = load ptr, ptr %5, align 8, !tbaa !58
  %25 = load ptr, ptr %4, align 8, !tbaa !60
  %26 = call i32 @i2a_ASN1_OBJECT(ptr noundef %24, ptr noundef %25)
  %27 = icmp ne i32 %26, 0
  br i1 %27, label %32, label %28

28:                                               ; preds = %23
  %29 = load ptr, ptr %5, align 8, !tbaa !58
  %30 = call i32 @BIO_free(ptr noundef %29)
  %31 = load i64, ptr @eOCSPError, align 8, !tbaa !6
  call void (i64, ptr, ...) @ossl_raise(i64 noundef %31, ptr noundef @.str.97) #16
  unreachable

32:                                               ; preds = %23
  %33 = load ptr, ptr %5, align 8, !tbaa !58
  %34 = call i64 @ossl_membio2str(ptr noundef %33)
  call void @llvm.lifetime.end.p0(i64 8, ptr %5) #15
  call void @llvm.lifetime.end.p0(i64 8, ptr %4) #15
  call void @llvm.lifetime.end.p0(i64 8, ptr %3) #15
  ret i64 %34
}