; Function Attrs: nounwind sspstrong uwtable
define internal i64 @ossl_ocspcid_get_hash_algorithm(i64 noundef %0) #0 {
  %2 = alloca ptr, align 8
  call void @llvm.lifetime.start.p0(i64 8, ptr nonnull %2) #5
  %3 = tail call ptr @rb_check_typeddata(i64 noundef %0, ptr noundef nonnull @ossl_ocsp_certid_type) #5
  %.not = icmp eq ptr %3, null
  br i1 %.not, label %4, label %6

4:                                                ; preds = %1
  %5 = load i64, ptr @rb_eRuntimeError, align 8, !tbaa !6
  tail call void (i64, ptr, ...) @ossl_raise(i64 noundef %5, ptr noundef nonnull @.str.77) #6
  unreachable

6:                                                ; preds = %1
  %7 = call i32 @OCSP_id_get0_info(ptr noundef null, ptr noundef nonnull %2, ptr noundef null, ptr noundef null, ptr noundef nonnull %3) #5
  %8 = call ptr @BIO_s_mem() #5
  %9 = call ptr @BIO_new(ptr noundef %8) #5
  %.not6 = icmp eq ptr %9, null
  br i1 %.not6, label %10, label %12

10:                                               ; preds = %6
  %11 = load i64, ptr @eOCSPError, align 8, !tbaa !6
  call void (i64, ptr, ...) @ossl_raise(i64 noundef %11, ptr noundef nonnull @.str.96) #6
  unreachable

12:                                               ; preds = %6
  %13 = load ptr, ptr %2, align 8, !tbaa !95
  %14 = call i32 @i2a_ASN1_OBJECT(ptr noundef nonnull %9, ptr noundef %13) #5
  %.not7 = icmp eq i32 %14, 0
  br i1 %.not7, label %15, label %18

15:                                               ; preds = %12
  %16 = call i32 @BIO_free(ptr noundef nonnull %9) #5
  %17 = load i64, ptr @eOCSPError, align 8, !tbaa !6
  call void (i64, ptr, ...) @ossl_raise(i64 noundef %17, ptr noundef nonnull @.str.97) #6
  unreachable

18:                                               ; preds = %12
  %19 = call i64 @ossl_membio2str(ptr noundef nonnull %9) #5
  call void @llvm.lifetime.end.p0(i64 8, ptr nonnull %2) #5
  ret i64 %19
}